target datalayout = "e-m:e-p270:32:32-p271:32:32-p272:64:64-i64:64-i128:128-f80:128-n8:16:32:64-S128"
target triple = "x86_64-pc-linux-gnu"

%struct.AVFilterContext = type { ptr, ptr, ptr, ptr, ptr, i32, ptr, ptr, i32, ptr, ptr, i32, i32, ptr, ptr, ptr, ptr, i32, ptr, i32, i32 }
%struct.BlackDetectContext = type { ptr, double, i64, i64, i64, i64, i32, double, double, i32, i32, %struct.AVRational, i32, i32, ptr }
%struct.AVRational = type { i32, i32 }
%struct.AVFilterLink = type { ptr, ptr, ptr, ptr, i32, i32, i32, i32, %struct.AVRational, i32, i32, i32, %struct.AVChannelLayout, %struct.AVRational, ptr, i32, %struct.AVFilterFormatsConfig, %struct.AVFilterFormatsConfig }
%struct.AVChannelLayout = type { i32, i32, %union.anon.1, ptr }
%union.anon.1 = type { i64 }
%struct.AVFilterFormatsConfig = type { ptr, ptr, ptr, ptr, ptr }
%struct.AVPixFmtDescriptor = type { ptr, i8, i8, i8, i64, [4 x %struct.AVComponentDescriptor], ptr }
%struct.AVComponentDescriptor = type { i32, i32, i32, i32, i32 }

@.str.9 = private unnamed_addr constant [67 x i8] c"black_min_duration:%s pixel_black_th:%f picture_black_ratio_th:%f\0A\00", align 1

; Function Attrs: inlinehint nounwind uwtable
define internal ptr @av_ts_make_time_string(ptr noundef %0, i64 noundef %1, ptr noundef %2) #3 {
  %4 = alloca ptr, align 8
  %5 = alloca i64, align 8
  %6 = alloca ptr, align 8
  store ptr %0, ptr %4, align 8, !tbaa !82
  store i64 %1, ptr %5, align 8, !tbaa !92
  store ptr %2, ptr %6, align 8, !tbaa !93
  %7 = load ptr, ptr %4, align 8, !tbaa !82
  %8 = load i64, ptr %5, align 8, !tbaa !92
  %9 = load ptr, ptr %6, align 8, !tbaa !93
  %10 = load i64, ptr %9, align 4
  %11 = call ptr @av_ts_make_time_string2(ptr noundef %7, i64 noundef %8, i64 %10)
  ret ptr %11
}

; Function Attrs: inlinehint nounwind uwtable
define internal double @av_q2d(i64 %0) #3 {
  %2 = alloca %struct.AVRational, align 4
  store i64 %0, ptr %2, align 4
  %3 = getelementptr inbounds nuw %struct.AVRational, ptr %2, i32 0, i32 0
  %4 = load i32, ptr %3, align 4, !tbaa !95
  %5 = sitofp i32 %4 to double
  %6 = getelementptr inbounds nuw %struct.AVRational, ptr %2, i32 0, i32 1
  %7 = load i32, ptr %6, align 4, !tbaa !96
  %8 = sitofp i32 %7 to double
  %9 = fdiv nsz double %5, %8
  ret double %9
}

; Function Attrs: nounwind uwtable
define internal i32 @config_input(ptr noundef %0) #1 {
  %2 = alloca i32, align 4
  %3 = alloca ptr, align 8
  %4 = alloca ptr, align 8
  %5 = alloca ptr, align 8
  %6 = alloca ptr, align 8
  %7 = alloca i32, align 4
  %8 = alloca i32, align 4
  %9 = alloca [32 x i8], align 1
  store ptr %0, ptr %3, align 8, !tbaa !32
  call void @llvm.lifetime.start.p0(i64 8, ptr %4) #10
  %10 = load ptr, ptr %3, align 8, !tbaa !32
  %11 = getelementptr inbounds nuw %struct.AVFilterLink, ptr %10, i32 0, i32 2
  %12 = load ptr, ptr %11, align 8, !tbaa !38
  store ptr %12, ptr %4, align 8, !tbaa !4
  call void @llvm.lifetime.start.p0(i64 8, ptr %5) #10
  %13 = load ptr, ptr %4, align 8, !tbaa !4
  %14 = getelementptr inbounds nuw %struct.AVFilterContext, ptr %13, i32 0, i32 9
  %15 = load ptr, ptr %14, align 8, !tbaa !9
  store ptr %15, ptr %5, align 8, !tbaa !22
  call void @llvm.lifetime.start.p0(i64 8, ptr %6) #10
  %16 = load ptr, ptr %3, align 8, !tbaa !32
  %17 = getelementptr inbounds nuw %struct.AVFilterLink, ptr %16, i32 0, i32 5
  %18 = load i32, ptr %17, align 4, !tbaa !70
  %19 = call ptr @av_pix_fmt_desc_get(i32 noundef %18)
  store ptr %19, ptr %6, align 8, !tbaa !71
  call void @llvm.lifetime.start.p0(i64 4, ptr %7) #10
  %20 = load ptr, ptr %6, align 8, !tbaa !71
  %21 = getelementptr inbounds nuw %struct.AVPixFmtDescriptor, ptr %20, i32 0, i32 5
  %22 = getelementptr inbounds [4 x %struct.AVComponentDescriptor], ptr %21, i64 0, i64 0
  %23 = getelementptr inbounds nuw %struct.AVComponentDescriptor, ptr %22, i32 0, i32 4
  %24 = load i32, ptr %23, align 8, !tbaa !73
  store i32 %24, ptr %7, align 4, !tbaa !47
  %25 = load i32, ptr %7, align 4, !tbaa !47
  %26 = load ptr, ptr %5, align 8, !tbaa !22
  %27 = getelementptr inbounds nuw %struct.BlackDetectContext, ptr %26, i32 0, i32 12
  store i32 %25, ptr %27, align 8, !tbaa !46
  %28 = load ptr, ptr %4, align 8, !tbaa !4
  %29 = call i32 @ff_filter_get_nb_threads(ptr noundef %28) #11
  %30 = load ptr, ptr %5, align 8, !tbaa !22
  %31 = getelementptr inbounds nuw %struct.BlackDetectContext, ptr %30, i32 0, i32 13
  store i32 %29, ptr %31, align 4, !tbaa !57
  %32 = load ptr, ptr %5, align 8, !tbaa !22
  %33 = getelementptr inbounds nuw %struct.BlackDetectContext, ptr %32, i32 0, i32 11
  %34 = load ptr, ptr %3, align 8, !tbaa !32
  %35 = getelementptr inbounds nuw %struct.AVFilterLink, ptr %34, i32 0, i32 13
  call void @llvm.memcpy.p0.p0.i64(ptr align 8 %33, ptr align 8 %35, i64 8, i1 false), !tbaa.struct !75
  %36 = load ptr, ptr %5, align 8, !tbaa !22
  %37 = getelementptr inbounds nuw %struct.BlackDetectContext, ptr %36, i32 0, i32 1
  %38 = load double, ptr %37, align 8, !tbaa !76
  %39 = load ptr, ptr %5, align 8, !tbaa !22
  %40 = getelementptr inbounds nuw %struct.BlackDetectContext, ptr %39, i32 0, i32 11
  %41 = load i64, ptr %40, align 8
  %42 = call nsz double @av_q2d(i64 %41)
  %43 = fdiv nsz double %38, %42
  %44 = fptosi double %43 to i64
  %45 = load ptr, ptr %5, align 8, !tbaa !22
  %46 = getelementptr inbounds nuw %struct.BlackDetectContext, ptr %45, i32 0, i32 2
  store i64 %44, ptr %46, align 8, !tbaa !77
  %47 = load ptr, ptr %5, align 8, !tbaa !22
  %48 = getelementptr inbounds nuw %struct.BlackDetectContext, ptr %47, i32 0, i32 13
  %49 = load i32, ptr %48, align 4, !tbaa !57
  %50 = sext i32 %49 to i64
  %51 = call noalias ptr @av_calloc(i64 noundef %50, i64 noundef 4)
  %52 = load ptr, ptr %5, align 8, !tbaa !22
  %53 = getelementptr inbounds nuw %struct.BlackDetectContext, ptr %52, i32 0, i32 14
  store ptr %51, ptr %53, align 8, !tbaa !58
  %54 = load ptr, ptr %5, align 8, !tbaa !22
  %55 = getelementptr inbounds nuw %struct.BlackDetectContext, ptr %54, i32 0, i32 14
  %56 = load ptr, ptr %55, align 8, !tbaa !58
  %57 = icmp ne ptr %56, null
  br i1 %57, label %59, label %58

58:                                               ; preds = %1
  store i32 -12, ptr %2, align 4
  store i32 1, ptr %8, align 4
  br label %74

59:                                               ; preds = %1
  %60 = load ptr, ptr %5, align 8, !tbaa !22
  call void @llvm.memset.p0.i64(ptr align 1 %9, i8 0, i64 32, i1 false)
  %61 = getelementptr inbounds [32 x i8], ptr %9, i64 0, i64 0
  %62 = load ptr, ptr %5, align 8, !tbaa !22
  %63 = getelementptr inbounds nuw %struct.BlackDetectContext, ptr %62, i32 0, i32 2
  %64 = load i64, ptr %63, align 8, !tbaa !77
  %65 = load ptr, ptr %5, align 8, !tbaa !22
  %66 = getelementptr inbounds nuw %struct.BlackDetectContext, ptr %65, i32 0, i32 11
  %67 = call ptr @av_ts_make_time_string(ptr noundef %61, i64 noundef %64, ptr noundef %66)
  %68 = load ptr, ptr %5, align 8, !tbaa !22
  %69 = getelementptr inbounds nuw %struct.BlackDetectContext, ptr %68, i32 0, i32 8
  %70 = load double, ptr %69, align 8, !tbaa !54
  %71 = load ptr, ptr %5, align 8, !tbaa !22
  %72 = getelementptr inbounds nuw %struct.BlackDetectContext, ptr %71, i32 0, i32 7
  %73 = load double, ptr %72, align 8, !tbaa !67
  call void (ptr, i32, ptr, ...) @av_log(ptr noundef %60, i32 noundef 40, ptr noundef @.str.9, ptr noundef %67, double noundef %70, double noundef %73)
  store i32 0, ptr %2, align 4
  store i32 1, ptr %8, align 4
  br label %74

74:                                               ; preds = %59, %58
  call void @llvm.lifetime.end.p0(i64 4, ptr %7) #10
  call void @llvm.lifetime.end.p0(i64 8, ptr %6) #10
  call void @llvm.lifetime.end.p0(i64 8, ptr %5) #10
  call void @llvm.lifetime.end.p0(i64 8, ptr %4) #10
  %75 = load i32, ptr %2, align 4
  ret i32 %75
}