; Function Attrs: nounwind uwtable
define internal range(i32 -12, 1) i32 @config_input(ptr noundef readonly captures(none) %0) #1 {
  %2 = alloca [32 x i8], align 1
  %3 = getelementptr inbounds nuw i8, ptr %0, i64 16
  %4 = load ptr, ptr %3, align 8, !tbaa !28
  %5 = getelementptr inbounds nuw i8, ptr %4, i64 72
  %6 = load ptr, ptr %5, align 8, !tbaa !4
  %7 = getelementptr inbounds nuw i8, ptr %0, i64 36
  %8 = load i32, ptr %7, align 4, !tbaa !62
  %9 = tail call ptr @av_pix_fmt_desc_get(i32 noundef %8) #10
  %10 = getelementptr inbounds nuw i8, ptr %9, i64 40
  %11 = load i32, ptr %10, align 8, !tbaa !63
  %12 = getelementptr inbounds nuw i8, ptr %6, i64 88
  store i32 %11, ptr %12, align 8, !tbaa !36
  %13 = tail call i32 @ff_filter_get_nb_threads(ptr noundef %4) #11
  %14 = getelementptr inbounds nuw i8, ptr %6, i64 92
  store i32 %13, ptr %14, align 4, !tbaa !46
  %15 = getelementptr inbounds nuw i8, ptr %6, i64 80
  %16 = getelementptr inbounds nuw i8, ptr %0, i64 96
  %17 = load i64, ptr %16, align 8
  store i64 %17, ptr %15, align 8
  %18 = getelementptr inbounds nuw i8, ptr %6, i64 8
  %19 = load double, ptr %18, align 8, !tbaa !65
  %.sroa.0.0.extract.trunc.i = trunc i64 %17 to i32
  %.sroa.2.0.extract.shift.i = lshr i64 %17, 32
  %.sroa.2.0.extract.trunc.i = trunc nuw i64 %.sroa.2.0.extract.shift.i to i32
  %20 = sitofp i32 %.sroa.0.0.extract.trunc.i to double
  %21 = sitofp i32 %.sroa.2.0.extract.trunc.i to double
  %22 = fdiv nsz double %20, %21
  %23 = fdiv nsz double %19, %22
  %24 = fptosi double %23 to i64
  %25 = getelementptr inbounds nuw i8, ptr %6, i64 16
  store i64 %24, ptr %25, align 8, !tbaa !66
  %26 = sext i32 %13 to i64
  %27 = tail call noalias ptr @av_calloc(i64 noundef %26, i64 noundef 4) #10
  %28 = getelementptr inbounds nuw i8, ptr %6, i64 96
  store ptr %27, ptr %28, align 8, !tbaa !48
  %.not = icmp eq ptr %27, null
  br i1 %.not, label %36, label %29

29:                                               ; preds = %1
  call void @llvm.memset.p0.i64(ptr noundef nonnull align 1 dereferenceable(32) %2, i8 0, i64 32, i1 false)
  %30 = load i64, ptr %25, align 8, !tbaa !66
  %.val = load i64, ptr %15, align 4
  %31 = call ptr @av_ts_make_time_string2(ptr noundef nonnull %2, i64 noundef %30, i64 %.val) #10
  %32 = getelementptr inbounds nuw i8, ptr %6, i64 64
  %33 = load double, ptr %32, align 8, !tbaa !43
  %34 = getelementptr inbounds nuw i8, ptr %6, i64 56
  %35 = load double, ptr %34, align 8, !tbaa !54
  call void (ptr, i32, ptr, ...) @av_log(ptr noundef nonnull %6, i32 noundef 40, ptr noundef nonnull @.str.9, ptr noundef %31, double noundef %33, double noundef %35) #10
  br label %36

36:                                               ; preds = %1, %29
  %.0 = phi i32 [ 0, %29 ], [ -12, %1 ]
  ret i32 %.0
}